target datalayout = "e-m:e-p270:32:32-p271:32:32-p272:64:64-i64:64-i128:128-f80:128-n8:16:32:64-S128"
target triple = "x86_64-pc-linux-gnu"

@.str.36 = private unnamed_addr constant [26 x i8] c"MBEDTLS_SSL_HELLO_REQUEST\00", align 1
@.str.37 = private unnamed_addr constant [25 x i8] c"MBEDTLS_SSL_CLIENT_HELLO\00", align 1
@.str.38 = private unnamed_addr constant [25 x i8] c"MBEDTLS_SSL_SERVER_HELLO\00", align 1
@.str.39 = private unnamed_addr constant [31 x i8] c"MBEDTLS_SSL_SERVER_CERTIFICATE\00", align 1
@.str.40 = private unnamed_addr constant [32 x i8] c"MBEDTLS_SSL_SERVER_KEY_EXCHANGE\00", align 1
@.str.41 = private unnamed_addr constant [32 x i8] c"MBEDTLS_SSL_CERTIFICATE_REQUEST\00", align 1
@.str.42 = private unnamed_addr constant [30 x i8] c"MBEDTLS_SSL_SERVER_HELLO_DONE\00", align 1
@.str.43 = private unnamed_addr constant [31 x i8] c"MBEDTLS_SSL_CLIENT_CERTIFICATE\00", align 1
@.str.44 = private unnamed_addr constant [32 x i8] c"MBEDTLS_SSL_CLIENT_KEY_EXCHANGE\00", align 1
@.str.45 = private unnamed_addr constant [31 x i8] c"MBEDTLS_SSL_CERTIFICATE_VERIFY\00", align 1
@.str.46 = private unnamed_addr constant [38 x i8] c"MBEDTLS_SSL_CLIENT_CHANGE_CIPHER_SPEC\00", align 1
@.str.47 = private unnamed_addr constant [28 x i8] c"MBEDTLS_SSL_CLIENT_FINISHED\00", align 1
@.str.48 = private unnamed_addr constant [38 x i8] c"MBEDTLS_SSL_SERVER_CHANGE_CIPHER_SPEC\00", align 1
@.str.49 = private unnamed_addr constant [28 x i8] c"MBEDTLS_SSL_SERVER_FINISHED\00", align 1
@.str.50 = private unnamed_addr constant [26 x i8] c"MBEDTLS_SSL_FLUSH_BUFFERS\00", align 1
@.str.51 = private unnamed_addr constant [29 x i8] c"MBEDTLS_SSL_HANDSHAKE_WRAPUP\00", align 1
@.str.52 = private unnamed_addr constant [31 x i8] c"MBEDTLS_SSL_NEW_SESSION_TICKET\00", align 1
@.str.53 = private unnamed_addr constant [45 x i8] c"MBEDTLS_SSL_SERVER_HELLO_VERIFY_REQUEST_SENT\00", align 1
@.str.54 = private unnamed_addr constant [32 x i8] c"MBEDTLS_SSL_HELLO_RETRY_REQUEST\00", align 1
@.str.55 = private unnamed_addr constant [33 x i8] c"MBEDTLS_SSL_ENCRYPTED_EXTENSIONS\00", align 1
@.str.56 = private unnamed_addr constant [30 x i8] c"MBEDTLS_SSL_END_OF_EARLY_DATA\00", align 1
@.str.57 = private unnamed_addr constant [38 x i8] c"MBEDTLS_SSL_CLIENT_CERTIFICATE_VERIFY\00", align 1
@.str.58 = private unnamed_addr constant [45 x i8] c"MBEDTLS_SSL_CLIENT_CCS_AFTER_SERVER_FINISHED\00", align 1
@.str.59 = private unnamed_addr constant [47 x i8] c"MBEDTLS_SSL_CLIENT_CCS_BEFORE_2ND_CLIENT_HELLO\00", align 1
@.str.60 = private unnamed_addr constant [42 x i8] c"MBEDTLS_SSL_SERVER_CCS_AFTER_SERVER_HELLO\00", align 1
@.str.61 = private unnamed_addr constant [42 x i8] c"MBEDTLS_SSL_CLIENT_CCS_AFTER_CLIENT_HELLO\00", align 1
@.str.62 = private unnamed_addr constant [49 x i8] c"MBEDTLS_SSL_SERVER_CCS_AFTER_HELLO_RETRY_REQUEST\00", align 1
@.str.63 = private unnamed_addr constant [27 x i8] c"MBEDTLS_SSL_HANDSHAKE_OVER\00", align 1
@.str.64 = private unnamed_addr constant [38 x i8] c"MBEDTLS_SSL_TLS1_3_NEW_SESSION_TICKET\00", align 1
@.str.65 = private unnamed_addr constant [44 x i8] c"MBEDTLS_SSL_TLS1_3_NEW_SESSION_TICKET_FLUSH\00", align 1
@.str.66 = private unnamed_addr constant [14 x i8] c"UNKNOWN_VALUE\00", align 1

; Function Attrs: nounwind uwtable
define hidden ptr @mbedtls_ssl_states_str(i32 noundef %0) #0 {
  %2 = alloca ptr, align 8
  %3 = alloca i32, align 4
  store i32 %0, ptr %3, align 4, !tbaa !7
  %4 = load i32, ptr %3, align 4, !tbaa !7
  switch i32 %4, label %35 [
    i32 0, label %5
    i32 1, label %6
    i32 2, label %7
    i32 3, label %8
    i32 4, label %9
    i32 5, label %10
    i32 6, label %11
    i32 7, label %12
    i32 8, label %13
    i32 9, label %14
    i32 10, label %15
    i32 11, label %16
    i32 12, label %17
    i32 13, label %18
    i32 14, label %19
    i32 15, label %20
    i32 16, label %21
    i32 17, label %22
    i32 18, label %23
    i32 19, label %24
    i32 20, label %25
    i32 21, label %26
    i32 22, label %27
    i32 23, label %28
    i32 24, label %29
    i32 25, label %30
    i32 26, label %31
    i32 27, label %32
    i32 28, label %33
    i32 29, label %34
  ]

5:                                                ; preds = %1
  store ptr @.str.36, ptr %2, align 8
  br label %36

6:                                                ; preds = %1
  store ptr @.str.37, ptr %2, align 8
  br label %36

7:                                                ; preds = %1
  store ptr @.str.38, ptr %2, align 8
  br label %36

8:                                                ; preds = %1
  store ptr @.str.39, ptr %2, align 8
  br label %36

9:                                                ; preds = %1
  store ptr @.str.40, ptr %2, align 8
  br label %36

10:                                               ; preds = %1
  store ptr @.str.41, ptr %2, align 8
  br label %36

11:                                               ; preds = %1
  store ptr @.str.42, ptr %2, align 8
  br label %36

12:                                               ; preds = %1
  store ptr @.str.43, ptr %2, align 8
  br label %36

13:                                               ; preds = %1
  store ptr @.str.44, ptr %2, align 8
  br label %36

14:                                               ; preds = %1
  store ptr @.str.45, ptr %2, align 8
  br label %36

15:                                               ; preds = %1
  store ptr @.str.46, ptr %2, align 8
  br label %36

16:                                               ; preds = %1
  store ptr @.str.47, ptr %2, align 8
  br label %36

17:                                               ; preds = %1
  store ptr @.str.48, ptr %2, align 8
  br label %36

18:                                               ; preds = %1
  store ptr @.str.49, ptr %2, align 8
  br label %36

19:                                               ; preds = %1
  store ptr @.str.50, ptr %2, align 8
  br label %36

20:                                               ; preds = %1
  store ptr @.str.51, ptr %2, align 8
  br label %36

21:                                               ; preds = %1
  store ptr @.str.52, ptr %2, align 8
  br label %36

22:                                               ; preds = %1
  store ptr @.str.53, ptr %2, align 8
  br label %36

23:                                               ; preds = %1
  store ptr @.str.54, ptr %2, align 8
  br label %36

24:                                               ; preds = %1
  store ptr @.str.55, ptr %2, align 8
  br label %36

25:                                               ; preds = %1
  store ptr @.str.56, ptr %2, align 8
  br label %36

26:                                               ; preds = %1
  store ptr @.str.57, ptr %2, align 8
  br label %36

27:                                               ; preds = %1
  store ptr @.str.58, ptr %2, align 8
  br label %36

28:                                               ; preds = %1
  store ptr @.str.59, ptr %2, align 8
  br label %36

29:                                               ; preds = %1
  store ptr @.str.60, ptr %2, align 8
  br label %36

30:                                               ; preds = %1
  store ptr @.str.61, ptr %2, align 8
  br label %36

31:                                               ; preds = %1
  store ptr @.str.62, ptr %2, align 8
  br label %36

32:                                               ; preds = %1
  store ptr @.str.63, ptr %2, align 8
  br label %36

33:                                               ; preds = %1
  store ptr @.str.64, ptr %2, align 8
  br label %36

34:                                               ; preds = %1
  store ptr @.str.65, ptr %2, align 8
  br label %36

35:                                               ; preds = %1
  store ptr @.str.66, ptr %2, align 8
  br label %36

36:                                               ; preds = %35, %34, %33, %32, %31, %30, %29, %28, %27, %26, %25, %24, %23, %22, %21, %20, %19, %18, %17, %16, %15, %14, %13, %12, %11, %10, %9, %8, %7, %6, %5
  %37 = load ptr, ptr %2, align 8
  ret ptr %37
}